target datalayout = "e-m:e-p270:32:32-p271:32:32-p272:64:64-i64:64-i128:128-f80:128-n8:16:32:64-S128"
target triple = "x86_64-pc-linux-gnu"

%"class.clang::QualType" = type { %"class.llvm::PointerIntPair" }
%"class.llvm::PointerIntPair" = type { %"struct.llvm::detail::PunnedPointer" }
%"struct.llvm::detail::PunnedPointer" = type { [8 x i8] }
%"class.llvm::FoldingSetBase::Node" = type { ptr }
%"class.clang::CanQual" = type { %"class.clang::QualType" }
%"class.clang::CodeGen::ABIArgInfo" = type <{ ptr, %union.anon.769, %union.anon.770, i8, i16, [5 x i8] }>
%union.anon.769 = type { ptr }
%union.anon.770 = type { %"struct.clang::CodeGen::ABIArgInfo::DirectAttrInfo" }
%"struct.clang::CodeGen::ABIArgInfo::DirectAttrInfo" = type { i32, i32 }
%"struct.clang::CodeGen::CGFunctionInfoArgInfo" = type { %"class.clang::CanQual", %"class.clang::CodeGen::ABIArgInfo" }
%"class.clang::CodeGen::CGFunctionInfo" = type { %"class.llvm::FoldingSetBase::Node", i64, %"class.clang::CodeGen::RequiredArgs", ptr, i32, i32 }
%"class.clang::CodeGen::RequiredArgs" = type { i32 }

; Function Attrs: mustprogress nounwind uwtable
define linkonce_odr hidden noundef ptr @_ZN4llvm15TrailingObjectsIN5clang7CodeGen14CGFunctionInfoEJNS2_21CGFunctionInfoArgInfoENS1_12FunctionType16ExtParameterInfoEEE22getTrailingObjectsImplEPKS3_NS_25trailing_objects_internal19TrailingObjectsBase13OverloadTokenIS3_EE(ptr noundef %0) #0 comdat align 2 {
  %2 = alloca ptr, align 8
  store ptr %0, ptr %2, align 8
  %3 = load ptr, ptr %2, align 8
  ret ptr %3
}

; Function Attrs: mustprogress nounwind uwtable
define linkonce_odr hidden noundef i64 @_ZN4llvm15TrailingObjectsIN5clang7CodeGen14CGFunctionInfoEJNS2_21CGFunctionInfoArgInfoENS1_12FunctionType16ExtParameterInfoEEE22callNumTrailingObjectsEPKS3_NS_25trailing_objects_internal19TrailingObjectsBase13OverloadTokenIS3_EE(ptr noundef %0) #0 comdat align 2 {
  %2 = alloca ptr, align 8
  store ptr %0, ptr %2, align 8
  ret i64 1
}

; Function Attrs: mustprogress nounwind uwtable
define linkonce_odr hidden noundef ptr @_ZN4llvm15TrailingObjectsIN5clang7CodeGen14CGFunctionInfoEJNS2_21CGFunctionInfoArgInfoENS1_12FunctionType16ExtParameterInfoEEE22getTrailingObjectsImplEPS3_NS_25trailing_objects_internal19TrailingObjectsBase13OverloadTokenIS3_EE(ptr noundef %0) #0 comdat align 2 {
  %2 = alloca ptr, align 8
  store ptr %0, ptr %2, align 8
  %3 = load ptr, ptr %2, align 8
  ret ptr %3
}

; Function Attrs: mustprogress nounwind uwtable
define linkonce_odr hidden noundef ptr @_ZN4llvm25trailing_objects_internal19TrailingObjectsImplILi8EN5clang7CodeGen14CGFunctionInfoENS_15TrailingObjectsIS4_JNS3_21CGFunctionInfoArgInfoENS2_12FunctionType16ExtParameterInfoEEEES4_JS6_S8_EE22getTrailingObjectsImplEPKS4_NS0_19TrailingObjectsBase13OverloadTokenIS6_EE(ptr noundef %0) #0 comdat align 2 {
  %2 = alloca ptr, align 8
  %3 = alloca ptr, align 8
  store ptr %0, ptr %2, align 8
  %4 = load ptr, ptr %2, align 8
  %5 = call noundef ptr @_ZN4llvm15TrailingObjectsIN5clang7CodeGen14CGFunctionInfoEJNS2_21CGFunctionInfoArgInfoENS1_12FunctionType16ExtParameterInfoEEE22getTrailingObjectsImplEPKS3_NS_25trailing_objects_internal19TrailingObjectsBase13OverloadTokenIS3_EE(ptr noundef %4)
  %6 = load ptr, ptr %2, align 8
  %7 = call noundef i64 @_ZN4llvm15TrailingObjectsIN5clang7CodeGen14CGFunctionInfoEJNS2_21CGFunctionInfoArgInfoENS1_12FunctionType16ExtParameterInfoEEE22callNumTrailingObjectsEPKS3_NS_25trailing_objects_internal19TrailingObjectsBase13OverloadTokenIS3_EE(ptr noundef %6)
  %8 = getelementptr inbounds %"class.clang::CodeGen::CGFunctionInfo", ptr %5, i64 %7
  store ptr %8, ptr %3, align 8
  %9 = load ptr, ptr %3, align 8
  ret ptr %9
}

; Function Attrs: mustprogress nounwind uwtable
define linkonce_odr hidden noundef ptr @_ZN4llvm25trailing_objects_internal19TrailingObjectsImplILi8EN5clang7CodeGen14CGFunctionInfoENS_15TrailingObjectsIS4_JNS3_21CGFunctionInfoArgInfoENS2_12FunctionType16ExtParameterInfoEEEES4_JS6_S8_EE22getTrailingObjectsImplEPS4_NS0_19TrailingObjectsBase13OverloadTokenIS6_EE(ptr noundef %0) #0 comdat align 2 {
  %2 = alloca ptr, align 8
  %3 = alloca ptr, align 8
  store ptr %0, ptr %2, align 8
  %4 = load ptr, ptr %2, align 8
  %5 = call noundef ptr @_ZN4llvm15TrailingObjectsIN5clang7CodeGen14CGFunctionInfoEJNS2_21CGFunctionInfoArgInfoENS1_12FunctionType16ExtParameterInfoEEE22getTrailingObjectsImplEPS3_NS_25trailing_objects_internal19TrailingObjectsBase13OverloadTokenIS3_EE(ptr noundef %4)
  %6 = load ptr, ptr %2, align 8
  %7 = call noundef i64 @_ZN4llvm15TrailingObjectsIN5clang7CodeGen14CGFunctionInfoEJNS2_21CGFunctionInfoArgInfoENS1_12FunctionType16ExtParameterInfoEEE22callNumTrailingObjectsEPKS3_NS_25trailing_objects_internal19TrailingObjectsBase13OverloadTokenIS3_EE(ptr noundef %6)
  %8 = getelementptr inbounds %"class.clang::CodeGen::CGFunctionInfo", ptr %5, i64 %7
  store ptr %8, ptr %3, align 8
  %9 = load ptr, ptr %3, align 8
  ret ptr %9
}

; Function Attrs: mustprogress nounwind uwtable
define linkonce_odr hidden void @_ZN4llvm15TrailingObjectsIN5clang7CodeGen14CGFunctionInfoEJNS2_21CGFunctionInfoArgInfoENS1_12FunctionType16ExtParameterInfoEEE31verifyTrailingObjectsAssertionsEv() #0 comdat align 2 {
  ret void
}

; Function Attrs: mustprogress nounwind uwtable
define linkonce_odr hidden noundef ptr @_ZNK4llvm15TrailingObjectsIN5clang7CodeGen14CGFunctionInfoEJNS2_21CGFunctionInfoArgInfoENS1_12FunctionType16ExtParameterInfoEEE18getTrailingObjectsIS4_EEPKT_v(ptr noundef nonnull align 8 dereferenceable(8) %0) #0 comdat align 2 {
  %2 = alloca ptr, align 8
  store ptr %0, ptr %2, align 8
  %3 = load ptr, ptr %2, align 8
  call void @_ZN4llvm15TrailingObjectsIN5clang7CodeGen14CGFunctionInfoEJNS2_21CGFunctionInfoArgInfoENS1_12FunctionType16ExtParameterInfoEEE31verifyTrailingObjectsAssertionsEv()
  %4 = call noundef ptr @_ZN4llvm25trailing_objects_internal19TrailingObjectsImplILi8EN5clang7CodeGen14CGFunctionInfoENS_15TrailingObjectsIS4_JNS3_21CGFunctionInfoArgInfoENS2_12FunctionType16ExtParameterInfoEEEES4_JS6_S8_EE22getTrailingObjectsImplEPKS4_NS0_19TrailingObjectsBase13OverloadTokenIS6_EE(ptr noundef %3)
  ret ptr %4
}

; Function Attrs: mustprogress nounwind uwtable
define linkonce_odr hidden noundef ptr @_ZN4llvm15TrailingObjectsIN5clang7CodeGen14CGFunctionInfoEJNS2_21CGFunctionInfoArgInfoENS1_12FunctionType16ExtParameterInfoEEE18getTrailingObjectsIS4_EEPT_v(ptr noundef nonnull align 8 dereferenceable(8) %0) #0 comdat align 2 {
  %2 = alloca ptr, align 8
  store ptr %0, ptr %2, align 8
  %3 = load ptr, ptr %2, align 8
  call void @_ZN4llvm15TrailingObjectsIN5clang7CodeGen14CGFunctionInfoEJNS2_21CGFunctionInfoArgInfoENS1_12FunctionType16ExtParameterInfoEEE31verifyTrailingObjectsAssertionsEv()
  %4 = call noundef ptr @_ZN4llvm25trailing_objects_internal19TrailingObjectsImplILi8EN5clang7CodeGen14CGFunctionInfoENS_15TrailingObjectsIS4_JNS3_21CGFunctionInfoArgInfoENS2_12FunctionType16ExtParameterInfoEEEES4_JS6_S8_EE22getTrailingObjectsImplEPS4_NS0_19TrailingObjectsBase13OverloadTokenIS6_EE(ptr noundef %3)
  ret ptr %4
}

; Function Attrs: mustprogress nounwind uwtable
define linkonce_odr hidden noundef ptr @_ZNK5clang7CodeGen14CGFunctionInfo13getArgsBufferEv(ptr noundef nonnull align 8 dereferenceable(40) %0) #0 comdat align 2 {
  %2 = alloca ptr, align 8
  store ptr %0, ptr %2, align 8
  %3 = load ptr, ptr %2, align 8
  %4 = call noundef ptr @_ZNK4llvm15TrailingObjectsIN5clang7CodeGen14CGFunctionInfoEJNS2_21CGFunctionInfoArgInfoENS1_12FunctionType16ExtParameterInfoEEE18getTrailingObjectsIS4_EEPKT_v(ptr noundef nonnull align 8 dereferenceable(8) %3)
  ret ptr %4
}

; Function Attrs: mustprogress nounwind uwtable
define linkonce_odr hidden noundef ptr @_ZN5clang7CodeGen14CGFunctionInfo13getArgsBufferEv(ptr noundef nonnull align 8 dereferenceable(40) %0) #0 comdat align 2 {
  %2 = alloca ptr, align 8
  store ptr %0, ptr %2, align 8
  %3 = load ptr, ptr %2, align 8
  %4 = call noundef ptr @_ZN4llvm15TrailingObjectsIN5clang7CodeGen14CGFunctionInfoEJNS2_21CGFunctionInfoArgInfoENS1_12FunctionType16ExtParameterInfoEEE18getTrailingObjectsIS4_EEPT_v(ptr noundef nonnull align 8 dereferenceable(8) %3)
  ret ptr %4
}

; Function Attrs: mustprogress nounwind uwtable
define dso_local void @_ZN5clang7CodeGen9swiftcall20classifyArgumentTypeERNS0_13CodeGenModuleENS_7CanQualINS_4TypeEEE(ptr dead_on_unwind noalias writable sret(%"class.clang::CodeGen::ABIArgInfo") align 8 %0, ptr noundef nonnull align 8 dereferenceable(3600) %1, i64 %2) #0 {
  %4 = alloca %"class.clang::CanQual", align 8
  %5 = alloca ptr, align 8
  %6 = alloca %"class.clang::CanQual", align 8
  %7 = getelementptr inbounds nuw %"class.clang::CanQual", ptr %4, i32 0, i32 0
  %8 = getelementptr inbounds nuw %"class.clang::QualType", ptr %7, i32 0, i32 0
  %9 = getelementptr inbounds nuw %"class.llvm::PointerIntPair", ptr %8, i32 0, i32 0
  %10 = getelementptr inbounds nuw %"struct.llvm::detail::PunnedPointer", ptr %9, i32 0, i32 0
  store i64 %2, ptr %10, align 8
  store ptr %1, ptr %5, align 8
  %11 = load ptr, ptr %5, align 8
  call void @llvm.memcpy.p0.p0.i64(ptr align 8 %6, ptr align 8 %4, i64 8, i1 false)
  %12 = getelementptr inbounds nuw %"class.clang::CanQual", ptr %6, i32 0, i32 0
  %13 = getelementptr inbounds nuw %"class.clang::QualType", ptr %12, i32 0, i32 0
  %14 = getelementptr inbounds nuw %"class.llvm::PointerIntPair", ptr %13, i32 0, i32 0
  %15 = getelementptr inbounds nuw %"struct.llvm::detail::PunnedPointer", ptr %14, i32 0, i32 0
  %16 = load i64, ptr %15, align 8
  call void @_ZL12classifyTypeRN5clang7CodeGen13CodeGenModuleENS_7CanQualINS_4TypeEEEb(ptr dead_on_unwind writable sret(%"class.clang::CodeGen::ABIArgInfo") align 8 %0, ptr noundef nonnull align 8 dereferenceable(3600) %11, i64 %16, i1 noundef zeroext false)
  ret void
}

; Function Attrs: mustprogress nounwind uwtable
define linkonce_odr hidden noundef ptr @_ZN5clang7CodeGen14CGFunctionInfo9arg_beginEv(ptr noundef nonnull align 8 dereferenceable(40) %0) #0 comdat align 2 {
  %2 = alloca ptr, align 8
  store ptr %0, ptr %2, align 8
  %3 = load ptr, ptr %2, align 8
  %4 = call noundef ptr @_ZN5clang7CodeGen14CGFunctionInfo13getArgsBufferEv(ptr noundef nonnull align 8 dereferenceable(40) %3)
  %5 = getelementptr inbounds %"struct.clang::CodeGen::CGFunctionInfoArgInfo", ptr %4, i64 1
  ret ptr %5
}

; Function Attrs: mustprogress nounwind uwtable
define linkonce_odr hidden noundef i32 @_ZNK5clang7CodeGen14CGFunctionInfo8arg_sizeEv(ptr noundef nonnull align 8 dereferenceable(40) %0) #0 comdat align 2 {
  %2 = alloca ptr, align 8
  store ptr %0, ptr %2, align 8
  %3 = load ptr, ptr %2, align 8
  %4 = getelementptr inbounds nuw %"class.clang::CodeGen::CGFunctionInfo", ptr %3, i32 0, i32 5
  %5 = load i32, ptr %4, align 4
  ret i32 %5
}

; Function Attrs: mustprogress nounwind uwtable
define dso_local void @_ZN5clang7CodeGen9swiftcall18classifyReturnTypeERNS0_13CodeGenModuleENS_7CanQualINS_4TypeEEE(ptr dead_on_unwind noalias writable sret(%"class.clang::CodeGen::ABIArgInfo") align 8 %0, ptr noundef nonnull align 8 dereferenceable(3600) %1, i64 %2) #0 {
  %4 = alloca %"class.clang::CanQual", align 8
  %5 = alloca ptr, align 8
  %6 = alloca %"class.clang::CanQual", align 8
  %7 = getelementptr inbounds nuw %"class.clang::CanQual", ptr %4, i32 0, i32 0
  %8 = getelementptr inbounds nuw %"class.clang::QualType", ptr %7, i32 0, i32 0
  %9 = getelementptr inbounds nuw %"class.llvm::PointerIntPair", ptr %8, i32 0, i32 0
  %10 = getelementptr inbounds nuw %"struct.llvm::detail::PunnedPointer", ptr %9, i32 0, i32 0
  store i64 %2, ptr %10, align 8
  store ptr %1, ptr %5, align 8
  %11 = load ptr, ptr %5, align 8
  call void @llvm.memcpy.p0.p0.i64(ptr align 8 %6, ptr align 8 %4, i64 8, i1 false)
  %12 = getelementptr inbounds nuw %"class.clang::CanQual", ptr %6, i32 0, i32 0
  %13 = getelementptr inbounds nuw %"class.clang::QualType", ptr %12, i32 0, i32 0
  %14 = getelementptr inbounds nuw %"class.llvm::PointerIntPair", ptr %13, i32 0, i32 0
  %15 = getelementptr inbounds nuw %"struct.llvm::detail::PunnedPointer", ptr %14, i32 0, i32 0
  %16 = load i64, ptr %15, align 8
  call void @_ZL12classifyTypeRN5clang7CodeGen13CodeGenModuleENS_7CanQualINS_4TypeEEEb(ptr dead_on_unwind writable sret(%"class.clang::CodeGen::ABIArgInfo") align 8 %0, ptr noundef nonnull align 8 dereferenceable(3600) %11, i64 %16, i1 noundef zeroext true)
  ret void
}

; Function Attrs: mustprogress nounwind uwtable
define linkonce_odr hidden i64 @_ZNK5clang7CodeGen14CGFunctionInfo13getReturnTypeEv(ptr noundef nonnull align 8 dereferenceable(40) %0) #0 comdat align 2 {
  %2 = alloca %"class.clang::CanQual", align 8
  %3 = alloca ptr, align 8
  store ptr %0, ptr %3, align 8
  %4 = load ptr, ptr %3, align 8
  %5 = call noundef ptr @_ZNK5clang7CodeGen14CGFunctionInfo13getArgsBufferEv(ptr noundef nonnull align 8 dereferenceable(40) %4)
  %6 = getelementptr inbounds %"struct.clang::CodeGen::CGFunctionInfoArgInfo", ptr %5, i64 0
  %7 = getelementptr inbounds nuw %"struct.clang::CodeGen::CGFunctionInfoArgInfo", ptr %6, i32 0, i32 0
  call void @llvm.memcpy.p0.p0.i64(ptr align 8 %2, ptr align 8 %7, i64 8, i1 false)
  %8 = getelementptr inbounds nuw %"class.clang::CanQual", ptr %2, i32 0, i32 0
  %9 = getelementptr inbounds nuw %"class.clang::QualType", ptr %8, i32 0, i32 0
  %10 = getelementptr inbounds nuw %"class.llvm::PointerIntPair", ptr %9, i32 0, i32 0
  %11 = getelementptr inbounds nuw %"struct.llvm::detail::PunnedPointer", ptr %10, i32 0, i32 0
  %12 = load i64, ptr %11, align 8
  ret i64 %12
}

; Function Attrs: mustprogress nounwind uwtable
define linkonce_odr hidden noundef nonnull align 8 dereferenceable(27) ptr @_ZN5clang7CodeGen14CGFunctionInfo13getReturnInfoEv(ptr noundef nonnull align 8 dereferenceable(40) %0) #0 comdat align 2 {
  %2 = alloca ptr, align 8
  store ptr %0, ptr %2, align 8
  %3 = load ptr, ptr %2, align 8
  %4 = call noundef ptr @_ZN5clang7CodeGen14CGFunctionInfo13getArgsBufferEv(ptr noundef nonnull align 8 dereferenceable(40) %3)
  %5 = getelementptr inbounds %"struct.clang::CodeGen::CGFunctionInfoArgInfo", ptr %4, i64 0
  %6 = getelementptr inbounds nuw %"struct.clang::CodeGen::CGFunctionInfoArgInfo", ptr %5, i32 0, i32 1
  ret ptr %6
}

; Function Attrs: mustprogress nounwind uwtable
define dso_local void @_ZN5clang7CodeGen9swiftcall14computeABIInfoERNS0_13CodeGenModuleERNS0_14CGFunctionInfoE(ptr noundef nonnull align 8 dereferenceable(3600) %0, ptr noundef nonnull align 8 dereferenceable(40) %1) #0 {
  %3 = alloca ptr, align 8
  %4 = alloca ptr, align 8
  %5 = alloca ptr, align 8
  %6 = alloca %"class.clang::CodeGen::ABIArgInfo", align 8
  %7 = alloca %"class.clang::CanQual", align 8
  %8 = alloca i32, align 4
  %9 = alloca i32, align 4
  %10 = alloca ptr, align 8
  %11 = alloca %"class.clang::CodeGen::ABIArgInfo", align 8
  %12 = alloca %"class.clang::CanQual", align 8
  store ptr %0, ptr %3, align 8
  store ptr %1, ptr %4, align 8
  %13 = load ptr, ptr %4, align 8
  %14 = call noundef nonnull align 8 dereferenceable(27) ptr @_ZN5clang7CodeGen14CGFunctionInfo13getReturnInfoEv(ptr noundef nonnull align 8 dereferenceable(40) %13)
  store ptr %14, ptr %5, align 8
  %15 = load ptr, ptr %3, align 8
  %16 = load ptr, ptr %4, align 8
  %17 = call i64 @_ZNK5clang7CodeGen14CGFunctionInfo13getReturnTypeEv(ptr noundef nonnull align 8 dereferenceable(40) %16)
  %18 = getelementptr inbounds nuw %"class.clang::CanQual", ptr %7, i32 0, i32 0
  %19 = getelementptr inbounds nuw %"class.clang::QualType", ptr %18, i32 0, i32 0
  %20 = getelementptr inbounds nuw %"class.llvm::PointerIntPair", ptr %19, i32 0, i32 0
  %21 = getelementptr inbounds nuw %"struct.llvm::detail::PunnedPointer", ptr %20, i32 0, i32 0
  store i64 %17, ptr %21, align 8
  %22 = getelementptr inbounds nuw %"class.clang::CanQual", ptr %7, i32 0, i32 0
  %23 = getelementptr inbounds nuw %"class.clang::QualType", ptr %22, i32 0, i32 0
  %24 = getelementptr inbounds nuw %"class.llvm::PointerIntPair", ptr %23, i32 0, i32 0
  %25 = getelementptr inbounds nuw %"struct.llvm::detail::PunnedPointer", ptr %24, i32 0, i32 0
  %26 = load i64, ptr %25, align 8
  call void @_ZN5clang7CodeGen9swiftcall18classifyReturnTypeERNS0_13CodeGenModuleENS_7CanQualINS_4TypeEEE(ptr dead_on_unwind writable sret(%"class.clang::CodeGen::ABIArgInfo") align 8 %6, ptr noundef nonnull align 8 dereferenceable(3600) %15, i64 %26)
  %27 = load ptr, ptr %5, align 8
  call void @llvm.memcpy.p0.p0.i64(ptr align 8 %27, ptr align 8 %6, i64 27, i1 false)
  store i32 0, ptr %8, align 4
  %28 = load ptr, ptr %4, align 8
  %29 = call noundef i32 @_ZNK5clang7CodeGen14CGFunctionInfo8arg_sizeEv(ptr noundef nonnull align 8 dereferenceable(40) %28)
  store i32 %29, ptr %9, align 4
  br label %30

30:                                               ; preds = %50, %2
  %31 = load i32, ptr %8, align 4
  %32 = load i32, ptr %9, align 4
  %33 = icmp ne i32 %31, %32
  br i1 %33, label %34, label %53

34:                                               ; preds = %30
  %35 = load ptr, ptr %4, align 8
  %36 = call noundef ptr @_ZN5clang7CodeGen14CGFunctionInfo9arg_beginEv(ptr noundef nonnull align 8 dereferenceable(40) %35)
  %37 = load i32, ptr %8, align 4
  %38 = zext i32 %37 to i64
  %39 = getelementptr inbounds %"struct.clang::CodeGen::CGFunctionInfoArgInfo", ptr %36, i64 %38
  store ptr %39, ptr %10, align 8
  %40 = load ptr, ptr %3, align 8
  %41 = load ptr, ptr %10, align 8
  %42 = getelementptr inbounds nuw %"struct.clang::CodeGen::CGFunctionInfoArgInfo", ptr %41, i32 0, i32 0
  call void @llvm.memcpy.p0.p0.i64(ptr align 8 %12, ptr align 8 %42, i64 8, i1 false)
  %43 = getelementptr inbounds nuw %"class.clang::CanQual", ptr %12, i32 0, i32 0
  %44 = getelementptr inbounds nuw %"class.clang::QualType", ptr %43, i32 0, i32 0
  %45 = getelementptr inbounds nuw %"class.llvm::PointerIntPair", ptr %44, i32 0, i32 0
  %46 = getelementptr inbounds nuw %"struct.llvm::detail::PunnedPointer", ptr %45, i32 0, i32 0
  %47 = load i64, ptr %46, align 8
  call void @_ZN5clang7CodeGen9swiftcall20classifyArgumentTypeERNS0_13CodeGenModuleENS_7CanQualINS_4TypeEEE(ptr dead_on_unwind writable sret(%"class.clang::CodeGen::ABIArgInfo") align 8 %11, ptr noundef nonnull align 8 dereferenceable(3600) %40, i64 %47)
  %48 = load ptr, ptr %10, align 8
  %49 = getelementptr inbounds nuw %"struct.clang::CodeGen::CGFunctionInfoArgInfo", ptr %48, i32 0, i32 1
  call void @llvm.memcpy.p0.p0.i64(ptr align 8 %49, ptr align 8 %11, i64 27, i1 false)
  br label %50

50:                                               ; preds = %34
  %51 = load i32, ptr %8, align 4
  %52 = add i32 %51, 1
  store i32 %52, ptr %8, align 4
  br label %30, !llvm.loop !19

53:                                               ; preds = %30
  ret void
}