; Function Attrs: mustprogress nounwind uwtable
define dso_local void @_ZN5clang7CodeGen9swiftcall14computeABIInfoERNS0_13CodeGenModuleERNS0_14CGFunctionInfoE(ptr noundef nonnull align 8 dereferenceable(3600) %0, ptr nocapture noundef nonnull align 8 dereferenceable(40) %1) local_unnamed_addr #0 {
  %3 = alloca %"class.clang::CodeGen::ABIArgInfo", align 8
  %4 = alloca %"class.clang::CodeGen::ABIArgInfo", align 8
  %5 = getelementptr inbounds i8, ptr %1, i64 48
  %6 = getelementptr inbounds i8, ptr %1, i64 40
  %.sroa.0.0.copyload.i = load i64, ptr %6, align 8
  call fastcc void @_ZL12classifyTypeRN5clang7CodeGen13CodeGenModuleENS_7CanQualINS_4TypeEEEb(ptr dead_on_unwind noalias nonnull writable align 8 %3, ptr noundef nonnull align 8 dereferenceable(3600) %0, i64 %.sroa.0.0.copyload.i, i1 noundef zeroext true)
  call void @llvm.memcpy.p0.p0.i64(ptr noundef nonnull align 8 dereferenceable(27) %5, ptr noundef nonnull align 8 dereferenceable(27) %3, i64 27, i1 false)
  %7 = getelementptr inbounds nuw i8, ptr %1, i64 36
  %8 = load i32, ptr %7, align 4
  %.not13 = icmp eq i32 %8, 0
  br i1 %.not13, label %._crit_edge, label %.lr.ph

.lr.ph:                                           ; preds = %2
  %9 = getelementptr inbounds i8, ptr %1, i64 80
  %10 = zext i32 %8 to i64
  br label %11

11:                                               ; preds = %.lr.ph, %11
  %indvars.iv = phi i64 [ 0, %.lr.ph ], [ %indvars.iv.next, %11 ]
  %12 = getelementptr inbounds %"struct.clang::CodeGen::CGFunctionInfoArgInfo", ptr %9, i64 %indvars.iv
  %.sroa.0.0.copyload = load i64, ptr %12, align 8
  call fastcc void @_ZL12classifyTypeRN5clang7CodeGen13CodeGenModuleENS_7CanQualINS_4TypeEEEb(ptr dead_on_unwind noalias nonnull writable align 8 %4, ptr noundef nonnull align 8 dereferenceable(3600) %0, i64 %.sroa.0.0.copyload, i1 noundef zeroext false)
  %13 = getelementptr inbounds nuw i8, ptr %12, i64 8
  call void @llvm.memcpy.p0.p0.i64(ptr noundef nonnull align 8 dereferenceable(27) %13, ptr noundef nonnull align 8 dereferenceable(27) %4, i64 27, i1 false)
  %indvars.iv.next = add nuw nsw i64 %indvars.iv, 1
  %.not = icmp eq i64 %indvars.iv.next, %10
  br i1 %.not, label %._crit_edge, label %11, !llvm.loop !64

._crit_edge:                                      ; preds = %11, %2
  ret void
}